; Function Attrs: mustprogress uwtable
define hidden void @_ZNK5osgeo4proj2cs10VerticalCS9alterUnitERKNS0_6common13UnitOfMeasureE(ptr dead_on_unwind noalias writable sret(%"class.dropbox::oxygen::nn.107") align 8 %0, ptr noundef nonnull readonly align 8 captures(none) dereferenceable(56) %1, ptr noundef nonnull align 8 dereferenceable(24) %2) local_unnamed_addr #0 align 2 personality ptr @__gxx_personality_v0 {
  %4 = alloca %"class.dropbox::oxygen::nn.67", align 8
  %5 = getelementptr inbounds nuw i8, ptr %1, i64 48
  %6 = load ptr, ptr %5, align 8, !tbaa !134
  call void @llvm.lifetime.start.p0(i64 16, ptr nonnull %4) #33
  %7 = load ptr, ptr %6, align 8, !tbaa !131
  %8 = load ptr, ptr %7, align 8, !tbaa !69
  call void @_ZNK5osgeo4proj2cs20CoordinateSystemAxis9alterUnitERKNS0_6common13UnitOfMeasureE(ptr dead_on_unwind nonnull writable sret(%"class.dropbox::oxygen::nn.67") align 8 %4, ptr noundef nonnull align 8 dereferenceable(56) %8, ptr noundef nonnull align 8 dereferenceable(24) %2)
  invoke void @_ZN5osgeo4proj2cs10VerticalCS14nn_make_sharedIS2_JN7dropbox6oxygen2nnISt10shared_ptrINS1_20CoordinateSystemAxisEEEEEEENS6_IS7_IT_EEEDpOT0_(ptr dead_on_unwind writable sret(%"class.dropbox::oxygen::nn.107") align 8 %0, ptr noundef nonnull align 8 dereferenceable(16) %4)
          to label %9 unwind label %33

9:                                                ; preds = %3
  %10 = getelementptr inbounds nuw i8, ptr %4, i64 8
  %11 = load ptr, ptr %10, align 8, !tbaa !27
  %.not.i.i.i = icmp eq ptr %11, null
  br i1 %.not.i.i.i, label %_ZN7dropbox6oxygen2nnISt10shared_ptrIN5osgeo4proj2cs20CoordinateSystemAxisEEED2Ev.exit, label %12

12:                                               ; preds = %9
  %13 = getelementptr inbounds nuw i8, ptr %11, i64 8
  %14 = load atomic i64, ptr %13 acquire, align 8
  %15 = icmp eq i64 %14, 4294967297
  %16 = trunc i64 %14 to i32
  br i1 %15, label %17, label %25

17:                                               ; preds = %12
  store i32 0, ptr %13, align 8, !tbaa !16
  %18 = getelementptr inbounds nuw i8, ptr %11, i64 12
  store i32 0, ptr %18, align 4, !tbaa !19
  %19 = load ptr, ptr %11, align 8, !tbaa !3
  %20 = getelementptr inbounds nuw i8, ptr %19, i64 16
  %21 = load ptr, ptr %20, align 8
  call void %21(ptr noundef nonnull align 8 dereferenceable(16) %11) #33
  %22 = load ptr, ptr %11, align 8, !tbaa !3
  %23 = getelementptr inbounds nuw i8, ptr %22, i64 24
  %24 = load ptr, ptr %23, align 8
  call void %24(ptr noundef nonnull align 8 dereferenceable(16) %11) #33
  br label %_ZN7dropbox6oxygen2nnISt10shared_ptrIN5osgeo4proj2cs20CoordinateSystemAxisEEED2Ev.exit

25:                                               ; preds = %12
  %26 = load i8, ptr @__libc_single_threaded, align 1, !tbaa !36
  %.not.i.i.i.i = icmp eq i8 %26, 0
  br i1 %.not.i.i.i.i, label %29, label %27

27:                                               ; preds = %25
  %28 = add nsw i32 %16, -1
  store i32 %28, ptr %13, align 4, !tbaa !72
  br label %_ZN9__gnu_cxx27__exchange_and_add_dispatchEPii.exit.i.i.i.i

29:                                               ; preds = %25
  %30 = atomicrmw volatile add ptr %13, i32 -1 acq_rel, align 4
  br label %_ZN9__gnu_cxx27__exchange_and_add_dispatchEPii.exit.i.i.i.i

_ZN9__gnu_cxx27__exchange_and_add_dispatchEPii.exit.i.i.i.i: ; preds = %29, %27
  %.0.i.i.i.i.i = phi i32 [ %16, %27 ], [ %30, %29 ]
  %31 = icmp eq i32 %.0.i.i.i.i.i, 1
  br i1 %31, label %32, label %_ZN7dropbox6oxygen2nnISt10shared_ptrIN5osgeo4proj2cs20CoordinateSystemAxisEEED2Ev.exit, !prof !73

32:                                               ; preds = %_ZN9__gnu_cxx27__exchange_and_add_dispatchEPii.exit.i.i.i.i
  call void @_ZNSt16_Sp_counted_baseILN9__gnu_cxx12_Lock_policyE2EE24_M_release_last_use_coldEv(ptr noundef nonnull align 8 dereferenceable(16) %11) #33
  br label %_ZN7dropbox6oxygen2nnISt10shared_ptrIN5osgeo4proj2cs20CoordinateSystemAxisEEED2Ev.exit

_ZN7dropbox6oxygen2nnISt10shared_ptrIN5osgeo4proj2cs20CoordinateSystemAxisEEED2Ev.exit: ; preds = %9, %17, %_ZN9__gnu_cxx27__exchange_and_add_dispatchEPii.exit.i.i.i.i, %32
  call void @llvm.lifetime.end.p0(i64 16, ptr nonnull %4) #33
  ret void

33:                                               ; preds = %3
  %34 = landingpad { ptr, i32 }
          cleanup
  call void @_ZN7dropbox6oxygen2nnISt10shared_ptrIN5osgeo4proj2cs20CoordinateSystemAxisEEED2Ev(ptr noundef nonnull align 8 dereferenceable(16) %4) #33
  call void @llvm.lifetime.end.p0(i64 16, ptr nonnull %4) #33
  resume { ptr, i32 } %34
}